; ModuleID = '28/637.c'
source_filename = "28/637.c"
target datalayout = "e-m:e-p270:32:32-p271:32:32-p272:64:64-i64:64-f80:128-n8:16:32:64-S128"
target triple = "x86_64-pc-linux-gnu"

@.str = private unnamed_addr constant [3 x i8] c"%d\00", align 1
@.str.1 = private unnamed_addr constant [4 x i8] c",%d\00", align 1
@.str.2 = private unnamed_addr constant [2 x i8] c"\0A\00", align 1

; Function Attrs: noinline nounwind uwtable
define dso_local i32 @main() #0 {
  %1 = alloca i32, align 4
  %2 = alloca i32, align 4
  %3 = alloca i32, align 4
  %4 = alloca i32, align 4
  %5 = alloca [1000 x i8], align 16
  store i32 0, i32* %1, align 4
  store i32 0, i32* %3, align 4
  store i32 0, i32* %4, align 4
  %6 = getelementptr inbounds [1000 x i8], [1000 x i8]* %5, i64 0, i64 0
  %7 = call i32 (i8*, ...) bitcast (i32 (...)* @gets to i32 (i8*, ...)*)(i8* %6)
  %8 = getelementptr inbounds [1000 x i8], [1000 x i8]* %5, i64 0, i64 0
  %9 = call i64 @strlen(i8* %8) #3
  %10 = trunc i64 %9 to i32
  store i32 %10, i32* %2, align 4
  %11 = getelementptr inbounds [1000 x i8], [1000 x i8]* %5, i64 0, i64 0
  %12 = load i8, i8* %11, align 16
  %13 = sext i8 %12 to i32
  %14 = icmp ne i32 %13, 32
  br i1 %14, label %15, label %93

15:                                               ; preds = %0
  br label %16

16:                                               ; preds = %30, %15
  %17 = load i32, i32* %3, align 4
  %18 = sext i32 %17 to i64
  %19 = getelementptr inbounds [1000 x i8], [1000 x i8]* %5, i64 0, i64 %18
  %20 = load i8, i8* %19, align 1
  %21 = sext i8 %20 to i32
  %22 = icmp ne i32 %21, 32
  br i1 %22, label %23, label %28

23:                                               ; preds = %16
  %24 = load i32, i32* %3, align 4
  %25 = load i32, i32* %2, align 4
  %26 = sub nsw i32 %25, 1
  %27 = icmp sle i32 %24, %26
  br label %28

28:                                               ; preds = %23, %16
  %29 = phi i1 [ false, %16 ], [ %27, %23 ]
  br i1 %29, label %30, label %33

30:                                               ; preds = %28
  %31 = load i32, i32* %3, align 4
  %32 = add nsw i32 %31, 1
  store i32 %32, i32* %3, align 4
  br label %16

33:                                               ; preds = %28
  %34 = load i32, i32* %3, align 4
  %35 = call i32 (i8*, ...) @printf(i8* getelementptr inbounds ([3 x i8], [3 x i8]* @.str, i64 0, i64 0), i32 %34)
  br label %36

36:                                               ; preds = %88, %33
  %37 = load i32, i32* %3, align 4
  %38 = load i32, i32* %2, align 4
  %39 = sub nsw i32 %38, 1
  %40 = icmp sle i32 %37, %39
  br i1 %40, label %41, label %91

41:                                               ; preds = %36
  %42 = load i32, i32* %3, align 4
  %43 = sext i32 %42 to i64
  %44 = getelementptr inbounds [1000 x i8], [1000 x i8]* %5, i64 0, i64 %43
  %45 = load i8, i8* %44, align 1
  %46 = sext i8 %45 to i32
  %47 = icmp eq i32 %46, 32
  br i1 %47, label %48, label %88

48:                                               ; preds = %41
  %49 = load i32, i32* %3, align 4
  %50 = add nsw i32 %49, 1
  %51 = sext i32 %50 to i64
  %52 = getelementptr inbounds [1000 x i8], [1000 x i8]* %5, i64 0, i64 %51
  %53 = load i8, i8* %52, align 1
  %54 = sext i8 %53 to i32
  %55 = icmp ne i32 %54, 32
  br i1 %55, label %56, label %88

56:                                               ; preds = %48
  %57 = load i32, i32* %3, align 4
  %58 = load i32, i32* %2, align 4
  %59 = sub nsw i32 %58, 2
  %60 = icmp sle i32 %57, %59
  br i1 %60, label %61, label %88

61:                                               ; preds = %56
  %62 = load i32, i32* %3, align 4
  %63 = add nsw i32 %62, 1
  store i32 %63, i32* %3, align 4
  br label %64

64:                                               ; preds = %78, %61
  %65 = load i32, i32* %3, align 4
  %66 = sext i32 %65 to i64
  %67 = getelementptr inbounds [1000 x i8], [1000 x i8]* %5, i64 0, i64 %66
  %68 = load i8, i8* %67, align 1
  %69 = sext i8 %68 to i32
  %70 = icmp ne i32 %69, 32
  br i1 %70, label %71, label %76

71:                                               ; preds = %64
  %72 = load i32, i32* %3, align 4
  %73 = load i32, i32* %2, align 4
  %74 = sub nsw i32 %73, 1
  %75 = icmp sle i32 %72, %74
  br label %76

76:                                               ; preds = %71, %64
  %77 = phi i1 [ false, %64 ], [ %75, %71 ]
  br i1 %77, label %78, label %83

78:                                               ; preds = %76
  %79 = load i32, i32* %4, align 4
  %80 = add nsw i32 %79, 1
  store i32 %80, i32* %4, align 4
  %81 = load i32, i32* %3, align 4
  %82 = add nsw i32 %81, 1
  store i32 %82, i32* %3, align 4
  br label %64

83:                                               ; preds = %76
  %84 = load i32, i32* %4, align 4
  %85 = call i32 (i8*, ...) @printf(i8* getelementptr inbounds ([4 x i8], [4 x i8]* @.str.1, i64 0, i64 0), i32 %84)
  store i32 0, i32* %4, align 4
  %86 = load i32, i32* %3, align 4
  %87 = add nsw i32 %86, -1
  store i32 %87, i32* %3, align 4
  br label %88

88:                                               ; preds = %83, %56, %48, %41
  %89 = load i32, i32* %3, align 4
  %90 = add nsw i32 %89, 1
  store i32 %90, i32* %3, align 4
  br label %36

91:                                               ; preds = %36
  %92 = call i32 (i8*, ...) @printf(i8* getelementptr inbounds ([2 x i8], [2 x i8]* @.str.2, i64 0, i64 0))
  br label %186

93:                                               ; preds = %0
  br label %94

94:                                               ; preds = %101, %93
  %95 = load i32, i32* %3, align 4
  %96 = sext i32 %95 to i64
  %97 = getelementptr inbounds [1000 x i8], [1000 x i8]* %5, i64 0, i64 %96
  %98 = load i8, i8* %97, align 1
  %99 = sext i8 %98 to i32
  %100 = icmp eq i32 %99, 32
  br i1 %100, label %101, label %104

101:                                              ; preds = %94
  %102 = load i32, i32* %3, align 4
  %103 = add nsw i32 %102, 1
  store i32 %103, i32* %3, align 4
  br label %94

104:                                              ; preds = %94
  store i32 0, i32* %4, align 4
  br label %105

105:                                              ; preds = %119, %104
  %106 = load i32, i32* %3, align 4
  %107 = sext i32 %106 to i64
  %108 = getelementptr inbounds [1000 x i8], [1000 x i8]* %5, i64 0, i64 %107
  %109 = load i8, i8* %108, align 1
  %110 = sext i8 %109 to i32
  %111 = icmp ne i32 %110, 32
  br i1 %111, label %112, label %117

112:                                              ; preds = %105
  %113 = load i32, i32* %3, align 4
  %114 = load i32, i32* %2, align 4
  %115 = sub nsw i32 %114, 1
  %116 = icmp sle i32 %113, %115
  br label %117

117:                                              ; preds = %112, %105
  %118 = phi i1 [ false, %105 ], [ %116, %112 ]
  br i1 %118, label %119, label %124

119:                                              ; preds = %117
  %120 = load i32, i32* %4, align 4
  %121 = add nsw i32 %120, 1
  store i32 %121, i32* %4, align 4
  %122 = load i32, i32* %3, align 4
  %123 = add nsw i32 %122, 1
  store i32 %123, i32* %3, align 4
  br label %105

124:                                              ; preds = %117
  %125 = load i32, i32* %4, align 4
  %126 = call i32 (i8*, ...) @printf(i8* getelementptr inbounds ([3 x i8], [3 x i8]* @.str, i64 0, i64 0), i32 %125)
  %127 = load i32, i32* %3, align 4
  %128 = add nsw i32 %127, -1
  store i32 %128, i32* %3, align 4
  store i32 0, i32* %4, align 4
  br label %129

129:                                              ; preds = %181, %124
  %130 = load i32, i32* %3, align 4
  %131 = load i32, i32* %2, align 4
  %132 = sub nsw i32 %131, 1
  %133 = icmp sle i32 %130, %132
  br i1 %133, label %134, label %184

134:                                              ; preds = %129
  %135 = load i32, i32* %3, align 4
  %136 = sext i32 %135 to i64
  %137 = getelementptr inbounds [1000 x i8], [1000 x i8]* %5, i64 0, i64 %136
  %138 = load i8, i8* %137, align 1
  %139 = sext i8 %138 to i32
  %140 = icmp eq i32 %139, 32
  br i1 %140, label %141, label %181

141:                                              ; preds = %134
  %142 = load i32, i32* %3, align 4
  %143 = add nsw i32 %142, 1
  %144 = sext i32 %143 to i64
  %145 = getelementptr inbounds [1000 x i8], [1000 x i8]* %5, i64 0, i64 %144
  %146 = load i8, i8* %145, align 1
  %147 = sext i8 %146 to i32
  %148 = icmp ne i32 %147, 32
  br i1 %148, label %149, label %181

149:                                              ; preds = %141
  %150 = load i32, i32* %3, align 4
  %151 = load i32, i32* %2, align 4
  %152 = sub nsw i32 %151, 2
  %153 = icmp sle i32 %150, %152
  br i1 %153, label %154, label %181

154:                                              ; preds = %149
  %155 = load i32, i32* %3, align 4
  %156 = add nsw i32 %155, 1
  store i32 %156, i32* %3, align 4
  br label %157

157:                                              ; preds = %171, %154
  %158 = load i32, i32* %3, align 4
  %159 = sext i32 %158 to i64
  %160 = getelementptr inbounds [1000 x i8], [1000 x i8]* %5, i64 0, i64 %159
  %161 = load i8, i8* %160, align 1
  %162 = sext i8 %161 to i32
  %163 = icmp ne i32 %162, 32
  br i1 %163, label %164, label %169

164:                                              ; preds = %157
  %165 = load i32, i32* %3, align 4
  %166 = load i32, i32* %2, align 4
  %167 = sub nsw i32 %166, 1
  %168 = icmp sle i32 %165, %167
  br label %169

169:                                              ; preds = %164, %157
  %170 = phi i1 [ false, %157 ], [ %168, %164 ]
  br i1 %170, label %171, label %176

171:                                              ; preds = %169
  %172 = load i32, i32* %4, align 4
  %173 = add nsw i32 %172, 1
  store i32 %173, i32* %4, align 4
  %174 = load i32, i32* %3, align 4
  %175 = add nsw i32 %174, 1
  store i32 %175, i32* %3, align 4
  br label %157

176:                                              ; preds = %169
  %177 = load i32, i32* %4, align 4
  %178 = call i32 (i8*, ...) @printf(i8* getelementptr inbounds ([4 x i8], [4 x i8]* @.str.1, i64 0, i64 0), i32 %177)
  store i32 0, i32* %4, align 4
  %179 = load i32, i32* %3, align 4
  %180 = add nsw i32 %179, -1
  store i32 %180, i32* %3, align 4
  br label %181

181:                                              ; preds = %176, %149, %141, %134
  %182 = load i32, i32* %3, align 4
  %183 = add nsw i32 %182, 1
  store i32 %183, i32* %3, align 4
  br label %129

184:                                              ; preds = %129
  %185 = call i32 (i8*, ...) @printf(i8* getelementptr inbounds ([2 x i8], [2 x i8]* @.str.2, i64 0, i64 0))
  br label %186

186:                                              ; preds = %184, %91
  %187 = load i32, i32* %1, align 4
  ret i32 %187
}

declare dso_local i32 @gets(...) #1

; Function Attrs: nounwind readonly
declare dso_local i64 @strlen(i8*) #2

declare dso_local i32 @printf(i8*, ...) #1


!llvm.module.flags = !{!0}
!llvm.ident = !{!1}

!0 = !{i32 1, !"wchar_size", i32 4}
!1 = !{!"clang version 10.0.0-4ubuntu1 "}
